(dp0
S'per_epoch_ptimes'
p1
(lp2
F46.930233001708984
aF45.555310010910034
aF45.641111850738525
aF45.65383505821228
aF45.65845799446106
aF45.63040208816528
aF45.598676919937134
aF45.643784046173096
aF45.59831690788269
aF45.620646953582764
asS'D_losses'
p3
(lp4
cnumpy.core.multiarray
scalar
p5
(cnumpy
dtype
p6
(S'f4'
p7
I0
I1
tp8
Rp9
(I3
S'<'
p10
NNNI-1
I-1
I0
tp11
bS'>p\x9e?'
p12
tp13
Rp14
ag5
(g9
S'\xcf\xe3c?'
p15
tp16
Rp17
ag5
(g9
S'\x94\x86\x1f?'
p18
tp19
Rp20
ag5
(g9
S'q\x15\x83?'
p21
tp22
Rp23
ag5
(g9
S'\x00\x88\xa5?'
p24
tp25
Rp26
ag5
(g9
S'\xad\x84\xa5?'
p27
tp28
Rp29
ag5
(g9
S'iL\x9a?'
p30
tp31
Rp32
ag5
(g9
S';\xd6t?'
p33
tp34
Rp35
ag5
(g9
S'\xd7\x16a?'
p36
tp37
Rp38
ag5
(g9
S'\x1d-w?'
p39
tp40
Rp41
asS'total_ptime'
p42
(lp43
F578.5847060680389
asS'G_losses'
p44
(lp45
g5
(g9
S'4\xe9\xe5A'
p46
tp47
Rp48
ag5
(g9
S'C="A'
p49
tp50
Rp51
ag5
(g9
S'sB)@'
p52
tp53
Rp54
ag5
(g9
S'3T\n@'
p55
tp56
Rp57
ag5
(g9
S'H*\xfc?'
p58
tp59
Rp60
ag5
(g9
S'EU\xdb?'
p61
tp62
Rp63
ag5
(g9
S'&\xce"@'
p64
tp65
Rp66
ag5
(g9
S'\xde\xe2\x12@'
p67
tp68
Rp69
ag5
(g9
S'\xc9\xf1\x19@'
p70
tp71
Rp72
ag5
(g9
S'\xf95\x1f@'
p73
tp74
Rp75
as.