(dp0
S'per_epoch_ptimes'
p1
(lp2
F52.89445495605469
aF44.758063077926636
aF44.75729990005493
aF44.77347803115845
aF44.77136206626892
aF44.79936504364014
aF44.75382995605469
aF44.73977208137512
aF44.80104303359985
aF44.75095081329346
aF44.76567792892456
aF44.7648389339447
aF44.7516348361969
aF44.814348220825195
aF44.80496001243591
aF44.762436866760254
aF44.76824903488159
aF44.778388023376465
aF44.741284132003784
aF44.78811001777649
aF44.766064167022705
aF44.77812600135803
aF44.779680013656616
aF44.785696029663086
aF44.77211785316467
aF44.791877031326294
aF44.738529920578
aF44.760396003723145
aF44.763747215270996
aF44.78914284706116
aF44.77115511894226
aF44.76038408279419
aF44.755780935287476
aF44.80537509918213
aF44.764342069625854
aF44.76603579521179
aF44.78358721733093
aF44.79537105560303
aF44.78907489776611
aF44.783092975616455
aF44.782333850860596
aF44.75316309928894
aF44.78342008590698
aF44.76589393615723
aF44.74966096878052
aF44.75140690803528
aF44.77406096458435
aF44.79957318305969
aF44.76693415641785
aF44.79834008216858
aF44.7836811542511
aF44.75585699081421
aF44.759276151657104
aF44.79120993614197
aF44.81115913391113
aF44.802189111709595
aF44.796743869781494
aF44.7736930847168
aF44.75068116188049
aF44.74377202987671
aF44.75729298591614
aF44.7822699546814
aF44.7665228843689
aF44.768407106399536
aF44.79818415641785
aF44.790420055389404
aF44.814192056655884
aF44.79278898239136
aF44.78460884094238
aF44.80945181846619
asS'D_losses'
p3
(lp4
cnumpy.core.multiarray
scalar
p5
(cnumpy
dtype
p6
(S'f4'
p7
I0
I1
tp8
Rp9
(I3
S'<'
p10
NNNI-1
I-1
I0
tp11
bS'\xea\x82\xe2?'
p12
tp13
Rp14
ag5
(g9
S'\x14\xc4\x9f?'
p15
tp16
Rp17
ag5
(g9
S'|f\x97?'
p18
tp19
Rp20
ag5
(g9
S'%vs?'
p21
tp22
Rp23
ag5
(g9
S'V\xa1\x94?'
p24
tp25
Rp26
ag5
(g9
S'g\x17\x8b?'
p27
tp28
Rp29
ag5
(g9
S'\xe8\xc4k?'
p30
tp31
Rp32
ag5
(g9
S'H~\x8a?'
p33
tp34
Rp35
ag5
(g9
S's\xb7\x90?'
p36
tp37
Rp38
ag5
(g9
S'\xc0%\x8e?'
p39
tp40
Rp41
ag5
(g9
S'\xb6~\x91?'
p42
tp43
Rp44
ag5
(g9
S'"W\x87?'
p45
tp46
Rp47
ag5
(g9
S'+L\x86?'
p48
tp49
Rp50
ag5
(g9
S'\xd6l\x83?'
p51
tp52
Rp53
ag5
(g9
S'\xb8\xd0r?'
p54
tp55
Rp56
ag5
(g9
S'\x96u_?'
p57
tp58
Rp59
ag5
(g9
S'\x93rc?'
p60
tp61
Rp62
ag5
(g9
S'S\x04\\?'
p63
tp64
Rp65
ag5
(g9
S'\xa92^?'
p66
tp67
Rp68
ag5
(g9
S'N\x93n?'
p69
tp70
Rp71
ag5
(g9
S'\xda!d?'
p72
tp73
Rp74
ag5
(g9
S'i\xa6p?'
p75
tp76
Rp77
ag5
(g9
S'\x0f\x19k?'
p78
tp79
Rp80
ag5
(g9
S'C\xac|?'
p81
tp82
Rp83
ag5
(g9
S'\xee,p?'
p84
tp85
Rp86
ag5
(g9
S'\n\x10\x80?'
p87
tp88
Rp89
ag5
(g9
S'/Jk?'
p90
tp91
Rp92
ag5
(g9
S'\xae!o?'
p93
tp94
Rp95
ag5
(g9
S'\xcd\xc1b?'
p96
tp97
Rp98
ag5
(g9
S'\xbd\x13^?'
p99
tp100
Rp101
ag5
(g9
S'\x93\xf5s?'
p102
tp103
Rp104
ag5
(g9
S'E j?'
p105
tp106
Rp107
ag5
(g9
S'\x91\xf6]?'
p108
tp109
Rp110
ag5
(g9
S'\xf6\x87Y?'
p111
tp112
Rp113
ag5
(g9
S'\xf4\xb3c?'
p114
tp115
Rp116
ag5
(g9
S'\x1a]N?'
p117
tp118
Rp119
ag5
(g9
S'\x7f\x84U?'
p120
tp121
Rp122
ag5
(g9
S'\xf30S?'
p123
tp124
Rp125
ag5
(g9
S'J\x90V?'
p126
tp127
Rp128
ag5
(g9
S'\x8fFJ?'
p129
tp130
Rp131
ag5
(g9
S'=\xad<?'
p132
tp133
Rp134
ag5
(g9
S'f@J?'
p135
tp136
Rp137
ag5
(g9
S'\x1bi??'
p138
tp139
Rp140
ag5
(g9
S';\x8eS?'
p141
tp142
Rp143
ag5
(g9
S'\xb4\x0e<?'
p144
tp145
Rp146
ag5
(g9
S'{\xcbC?'
p147
tp148
Rp149
ag5
(g9
S'4\x15M?'
p150
tp151
Rp152
ag5
(g9
S'\x94\xbaL?'
p153
tp154
Rp155
ag5
(g9
S'\xfd`6?'
p156
tp157
Rp158
ag5
(g9
S'\xe4]>?'
p159
tp160
Rp161
ag5
(g9
S'\xe1;;?'
p162
tp163
Rp164
ag5
(g9
S' 0L?'
p165
tp166
Rp167
ag5
(g9
S')\xbd:?'
p168
tp169
Rp170
ag5
(g9
S'\xfdw+?'
p171
tp172
Rp173
ag5
(g9
S'\xe9\xa2>?'
p174
tp175
Rp176
ag5
(g9
S'8\xee/?'
p177
tp178
Rp179
ag5
(g9
S'\xf8\xfa6?'
p180
tp181
Rp182
ag5
(g9
S'\xe5\x07D?'
p183
tp184
Rp185
ag5
(g9
S'az8?'
p186
tp187
Rp188
ag5
(g9
S'\x16\xc4&?'
p189
tp190
Rp191
ag5
(g9
S'\x16H3?'
p192
tp193
Rp194
ag5
(g9
S'\xa4| ?'
p195
tp196
Rp197
ag5
(g9
S'\x8a\x8e#?'
p198
tp199
Rp200
ag5
(g9
S'j\x112?'
p201
tp202
Rp203
ag5
(g9
S'\xba/8?'
p204
tp205
Rp206
ag5
(g9
S'\xd5\xb0\x0f?'
p207
tp208
Rp209
ag5
(g9
S'\x8dS\x1b?'
p210
tp211
Rp212
ag5
(g9
S'\x94q\x1e?'
p213
tp214
Rp215
ag5
(g9
S'\xb1\x9b\x16?'
p216
tp217
Rp218
ag5
(g9
S'i\xc6\x12?'
p219
tp220
Rp221
asS'total_ptime'
p222
(lp223
F3955.932139158249
asS'G_losses'
p224
(lp225
g5
(g9
S'i\x91\xd1@'
p226
tp227
Rp228
ag5
(g9
S'Q,S@'
p229
tp230
Rp231
ag5
(g9
S'\xa3\xfa\x14@'
p232
tp233
Rp234
ag5
(g9
S'\x88\xf7\x04@'
p235
tp236
Rp237
ag5
(g9
S'\xe8\x81\x19@'
p238
tp239
Rp240
ag5
(g9
S'`\xb1\n@'
p241
tp242
Rp243
ag5
(g9
S'`L @'
p244
tp245
Rp246
ag5
(g9
S'd9\x0c@'
p247
tp248
Rp249
ag5
(g9
S'^\xc8\x14@'
p250
tp251
Rp252
ag5
(g9
S'\x9e\x01\x07@'
p253
tp254
Rp255
ag5
(g9
S'\x1b\x06\x05@'
p256
tp257
Rp258
ag5
(g9
S'\xb3Y\x00@'
p259
tp260
Rp261
ag5
(g9
S'\x81s\x04@'
p262
tp263
Rp264
ag5
(g9
S'\xb3\xfc\x06@'
p265
tp266
Rp267
ag5
(g9
S'\xbdv\x07@'
p268
tp269
Rp270
ag5
(g9
S'y\xc2\x05@'
p271
tp272
Rp273
ag5
(g9
S'85\x10@'
p274
tp275
Rp276
ag5
(g9
S'\xc2\x88\x1c@'
p277
tp278
Rp279
ag5
(g9
S'\x17Z\x1c@'
p280
tp281
Rp282
ag5
(g9
S'\xba\xbd @'
p283
tp284
Rp285
ag5
(g9
S'\xea*\x14@'
p286
tp287
Rp288
ag5
(g9
S'\xc5\xab\x14@'
p289
tp290
Rp291
ag5
(g9
S'\x89\x00\t@'
p292
tp293
Rp294
ag5
(g9
S'j\xe8\x07@'
p295
tp296
Rp297
ag5
(g9
S'\xc1D\x04@'
p298
tp299
Rp300
ag5
(g9
S' \x1f\x0f@'
p301
tp302
Rp303
ag5
(g9
S'\xbaL\x05@'
p304
tp305
Rp306
ag5
(g9
S'.\xe5\x06@'
p307
tp308
Rp309
ag5
(g9
S'\xe3i\x04@'
p310
tp311
Rp312
ag5
(g9
S'\x1b\xce\x08@'
p313
tp314
Rp315
ag5
(g9
S'\xf1t\r@'
p316
tp317
Rp318
ag5
(g9
S'\x8f\x14\x0b@'
p319
tp320
Rp321
ag5
(g9
S'\n\xcc\t@'
p322
tp323
Rp324
ag5
(g9
S'\xb1\xa9\x0b@'
p325
tp326
Rp327
ag5
(g9
S'c\x0b\r@'
p328
tp329
Rp330
ag5
(g9
S'\xb6\xf6\n@'
p331
tp332
Rp333
ag5
(g9
S'^\xaa\r@'
p334
tp335
Rp336
ag5
(g9
S'\xcb\xef\t@'
p337
tp338
Rp339
ag5
(g9
S'\x0f|\x12@'
p340
tp341
Rp342
ag5
(g9
S'\xe4?\x0b@'
p343
tp344
Rp345
ag5
(g9
S'\x87\x84\x13@'
p346
tp347
Rp348
ag5
(g9
S'\x91\x01\x17@'
p349
tp350
Rp351
ag5
(g9
S'z\x1f\x18@'
p352
tp353
Rp354
ag5
(g9
S'\x98.\x1d@'
p355
tp356
Rp357
ag5
(g9
S'$R\x1a@'
p358
tp359
Rp360
ag5
(g9
S'\x837\x15@'
p361
tp362
Rp363
ag5
(g9
S'\xa3\xae\x16@'
p364
tp365
Rp366
ag5
(g9
S'\xa5\x84\x1a@'
p367
tp368
Rp369
ag5
(g9
S'\x91\xac\x18@'
p370
tp371
Rp372
ag5
(g9
S'G\xa1\x19@'
p373
tp374
Rp375
ag5
(g9
S'\x96\x87\x1e@'
p376
tp377
Rp378
ag5
(g9
S'\xcd[#@'
p379
tp380
Rp381
ag5
(g9
S'v\xda\x1b@'
p382
tp383
Rp384
ag5
(g9
S'\x8c\xa1\x1a@'
p385
tp386
Rp387
ag5
(g9
S'\xd9\xb2\x1e@'
p388
tp389
Rp390
ag5
(g9
S"'\x1b!@"
p391
tp392
Rp393
ag5
(g9
S'|:"@'
p394
tp395
Rp396
ag5
(g9
S'~\xd2\x1e@'
p397
tp398
Rp399
ag5
(g9
S'\x9b\x0b!@'
p400
tp401
Rp402
ag5
(g9
S'N\xe4\x1e@'
p403
tp404
Rp405
ag5
(g9
S'\x92\x1b!@'
p406
tp407
Rp408
ag5
(g9
S'AV%@'
p409
tp410
Rp411
ag5
(g9
S'\xd8\xea%@'
p412
tp413
Rp414
ag5
(g9
S'\xddf(@'
p415
tp416
Rp417
ag5
(g9
S'\n\xdd+@'
p418
tp419
Rp420
ag5
(g9
S'\\\xe1\x1f@'
p421
tp422
Rp423
ag5
(g9
S'\x83\x13)@'
p424
tp425
Rp426
ag5
(g9
S'I\x830@'
p427
tp428
Rp429
ag5
(g9
S'\xf7X-@'
p430
tp431
Rp432
ag5
(g9
S'\xb2\xa1-@'
p433
tp434
Rp435
as.