(dp0
S'per_epoch_ptimes'
p1
(lp2
F9.804095983505249
aF6.662477016448975
aF6.663088083267212
aF6.659692049026489
aF6.558675050735474
aF6.5961198806762695
aF6.640241861343384
aF6.583580017089844
aF6.679955959320068
aF6.575017929077148
aF6.655971050262451
aF6.637887954711914
aF6.55197286605835
aF6.6774609088897705
aF6.579499006271362
aF6.70444393157959
aF6.690547943115234
aF6.584470987319946
aF6.644651889801025
aF6.690809965133667
aF6.568907976150513
aF6.6803998947143555
aF6.657517194747925
aF6.595766067504883
aF6.705318927764893
aF6.607255935668945
aF6.701937913894653
aF6.712787866592407
aF6.595542907714844
aF6.719940185546875
aF6.6666178703308105
aF6.580334901809692
aF6.674098968505859
aF6.675404071807861
aF6.592532157897949
aF6.707328796386719
aF6.693351984024048
aF6.590653896331787
aF6.709157943725586
aF6.703305006027222
aF6.593594074249268
aF6.6923041343688965
aF6.669943809509277
aF6.571981906890869
aF6.6519248485565186
aF6.679398059844971
aF6.568198919296265
aF6.685011863708496
aF6.6874940395355225
aF6.597994089126587
asS'D_losses'
p3
(lp4
cnumpy.core.multiarray
scalar
p5
(cnumpy
dtype
p6
(S'f4'
p7
I0
I1
tp8
Rp9
(I3
S'<'
p10
NNNI-1
I-1
I0
tp11
bS'\xff\xc3\xdf='
p12
tp13
Rp14
ag5
(g9
S'0\xef\x80<'
p15
tp16
Rp17
ag5
(g9
S'/\x07\xa1\xbc'
p18
tp19
Rp20
ag5
(g9
S'\xc9\x1c\xa2\xbc'
p21
tp22
Rp23
ag5
(g9
S'z\xda\xa2\xbc'
p24
tp25
Rp26
ag5
(g9
S'\x8d\xe7\xa2\xbc'
p27
tp28
Rp29
ag5
(g9
S'+\xe3\xa2\xbc'
p30
tp31
Rp32
ag5
(g9
S'\xdb\xf1\xa2\xbc'
p33
tp34
Rp35
ag5
(g9
S'\xb9\xf3\xa2\xbc'
p36
tp37
Rp38
ag5
(g9
S'\xb2\xff\xa2\xbc'
p39
tp40
Rp41
ag5
(g9
S'\xbc\x02\xa3\xbc'
p42
tp43
Rp44
ag5
(g9
S'\x85\x04\xa3\xbc'
p45
tp46
Rp47
ag5
(g9
S'W\x02\xa3\xbc'
p48
tp49
Rp50
ag5
(g9
S'\xe0\x04\xa3\xbc'
p51
tp52
Rp53
ag5
(g9
S'\x90\x05\xa3\xbc'
p54
tp55
Rp56
ag5
(g9
S'\x92\x05\xa3\xbc'
p57
tp58
Rp59
ag5
(g9
S'\x8f\x02\xa3\xbc'
p60
tp61
Rp62
ag5
(g9
S'/\x06\xa3\xbc'
p63
tp64
Rp65
ag5
(g9
S'M\x06\xa3\xbc'
p66
tp67
Rp68
ag5
(g9
S'w\x06\xa3\xbc'
p69
tp70
Rp71
ag5
(g9
S'\x89\x06\xa3\xbc'
p72
tp73
Rp74
ag5
(g9
S'}\x06\xa3\xbc'
p75
tp76
Rp77
ag5
(g9
S'w\x06\xa3\xbc'
p78
tp79
Rp80
ag5
(g9
S'\x89\x06\xa3\xbc'
p81
tp82
Rp83
ag5
(g9
S'\x8d\x06\xa3\xbc'
p84
tp85
Rp86
ag5
(g9
S'\x9b\x06\xa3\xbc'
p87
tp88
Rp89
ag5
(g9
S'\xa0\x06\xa3\xbc'
p90
tp91
Rp92
ag5
(g9
S'\x9b\x06\xa3\xbc'
p93
tp94
Rp95
ag5
(g9
S'\xa0\x06\xa3\xbc'
p96
tp97
Rp98
ag5
(g9
S'\xa9\x06\xa3\xbc'
p99
tp100
Rp101
ag5
(g9
S'\xa9\x06\xa3\xbc'
p102
tp103
Rp104
ag5
(g9
S'\xa8\x06\xa3\xbc'
p105
tp106
Rp107
ag5
(g9
S'\xa8\x06\xa3\xbc'
p108
tp109
Rp110
ag5
(g9
S'\xac\x06\xa3\xbc'
p111
tp112
Rp113
ag5
(g9
S'\xac\x06\xa3\xbc'
p114
tp115
Rp116
ag5
(g9
S'\xab\x06\xa3\xbc'
p117
tp118
Rp119
ag5
(g9
S'\xac\x06\xa3\xbc'
p120
tp121
Rp122
ag5
(g9
S'\xab\x06\xa3\xbc'
p123
tp124
Rp125
ag5
(g9
S'\xac\x06\xa3\xbc'
p126
tp127
Rp128
ag5
(g9
S'\xad\x06\xa3\xbc'
p129
tp130
Rp131
ag5
(g9
S'\xab\x06\xa3\xbc'
p132
tp133
Rp134
ag5
(g9
S'\xad\x06\xa3\xbc'
p135
tp136
Rp137
ag5
(g9
S'\xac\x06\xa3\xbc'
p138
tp139
Rp140
ag5
(g9
S'\xab\x06\xa3\xbc'
p141
tp142
Rp143
ag5
(g9
S'\xab\x06\xa3\xbc'
p144
tp145
Rp146
ag5
(g9
S'\xad\x06\xa3\xbc'
p147
tp148
Rp149
ag5
(g9
S'\xad\x06\xa3\xbc'
p150
tp151
Rp152
ag5
(g9
S'\xad\x06\xa3\xbc'
p153
tp154
Rp155
ag5
(g9
S'\xad\x06\xa3\xbc'
p156
tp157
Rp158
ag5
(g9
S'\xad\x06\xa3\xbc'
p159
tp160
Rp161
asS'total_ptime'
p162
(lp163
F1540.1143989562988
asS'G_losses'
p164
(lp165
g5
(g9
S'\xca5\x83@'
p166
tp167
Rp168
ag5
(g9
S'Y{\x91@'
p169
tp170
Rp171
ag5
(g9
S'\xca,\x93@'
p172
tp173
Rp174
ag5
(g9
S'\xc0L\x93@'
p175
tp176
Rp177
ag5
(g9
S'\xd2T\x93@'
p178
tp179
Rp180
ag5
(g9
S'aY\x93@'
p181
tp182
Rp183
ag5
(g9
S'\x13X\x93@'
p184
tp185
Rp186
ag5
(g9
S'\x8c[\x93@'
p187
tp188
Rp189
ag5
(g9
S'\x02[\x93@'
p190
tp191
Rp192
ag5
(g9
S'=\\\x93@'
p193
tp194
Rp195
ag5
(g9
S'"]\x93@'
p196
tp197
Rp198
ag5
(g9
S'7]\x93@'
p199
tp200
Rp201
ag5
(g9
S'\x1d]\x93@'
p202
tp203
Rp204
ag5
(g9
S'F]\x93@'
p205
tp206
Rp207
ag5
(g9
S'Y]\x93@'
p208
tp209
Rp210
ag5
(g9
S'q]\x93@'
p211
tp212
Rp213
ag5
(g9
S'\xd7\\\x93@'
p214
tp215
Rp216
ag5
(g9
S's]\x93@'
p217
tp218
Rp219
ag5
(g9
S'\x84]\x93@'
p220
tp221
Rp222
ag5
(g9
S'\x87]\x93@'
p223
tp224
Rp225
ag5
(g9
S'\x88]\x93@'
p226
tp227
Rp228
ag5
(g9
S'\x8a]\x93@'
p229
tp230
Rp231
ag5
(g9
S'\x89]\x93@'
p232
tp233
Rp234
ag5
(g9
S'\x8b]\x93@'
p235
tp236
Rp237
ag5
(g9
S'\x8c]\x93@'
p238
tp239
Rp240
ag5
(g9
S'\x8c]\x93@'
p241
tp242
Rp243
ag5
(g9
S'\x8c]\x93@'
p244
tp245
Rp246
ag5
(g9
S'\x8d]\x93@'
p247
tp248
Rp249
ag5
(g9
S'\x8d]\x93@'
p250
tp251
Rp252
ag5
(g9
S'\x8d]\x93@'
p253
tp254
Rp255
ag5
(g9
S'\x8e]\x93@'
p256
tp257
Rp258
ag5
(g9
S'\x8d]\x93@'
p259
tp260
Rp261
ag5
(g9
S'\x8e]\x93@'
p262
tp263
Rp264
ag5
(g9
S'\x8e]\x93@'
p265
tp266
Rp267
ag5
(g9
S'\x8e]\x93@'
p268
tp269
Rp270
ag5
(g9
S'\x8e]\x93@'
p271
tp272
Rp273
ag5
(g9
S'\x8e]\x93@'
p274
tp275
Rp276
ag5
(g9
S'\x8e]\x93@'
p277
tp278
Rp279
ag5
(g9
S'\x8e]\x93@'
p280
tp281
Rp282
ag5
(g9
S'\x8e]\x93@'
p283
tp284
Rp285
ag5
(g9
S'\x8e]\x93@'
p286
tp287
Rp288
ag5
(g9
S'\x8e]\x93@'
p289
tp290
Rp291
ag5
(g9
S'\x8e]\x93@'
p292
tp293
Rp294
ag5
(g9
S'\x8e]\x93@'
p295
tp296
Rp297
ag5
(g9
S'\x8e]\x93@'
p298
tp299
Rp300
ag5
(g9
S'\x8e]\x93@'
p301
tp302
Rp303
ag5
(g9
S'\x8e]\x93@'
p304
tp305
Rp306
ag5
(g9
S'\x8e]\x93@'
p307
tp308
Rp309
ag5
(g9
S'\x8e]\x93@'
p310
tp311
Rp312
ag5
(g9
S'\x8e]\x93@'
p313
tp314
Rp315
as.