(dp0
S'per_epoch_ptimes'
p1
(lp2
F9.81798005104065
aF6.5806920528411865
aF6.619753122329712
aF6.581358909606934
aF6.599902868270874
aF6.611626863479614
aF6.495711088180542
aF6.643095970153809
aF6.661412954330444
aF6.616322994232178
aF6.625460147857666
aF6.657609939575195
aF6.501968860626221
aF6.6046130657196045
aF6.6510419845581055
aF6.621484041213989
aF6.621767997741699
aF6.5122480392456055
aF6.557024002075195
aF6.639817953109741
aF6.614502906799316
aF6.61255407333374
aF6.531137943267822
aF6.589652061462402
aF6.62385892868042
aF6.6280601024627686
aF6.647846937179565
aF6.588758945465088
aF6.531759023666382
aF6.604369878768921
aF6.608098030090332
aF6.626410007476807
aF6.586708068847656
aF6.576958894729614
aF6.5594141483306885
aF6.569965124130249
aF6.655444145202637
aF6.6297760009765625
aF6.668760061264038
aF6.658026933670044
aF6.481974840164185
aF6.572670936584473
aF6.585999011993408
aF6.643077850341797
aF6.625419855117798
aF6.588788986206055
aF6.638729810714722
aF6.526947975158691
aF6.584829807281494
aF6.5649659633636475
asS'D_losses'
p3
(lp4
cnumpy.core.multiarray
scalar
p5
(cnumpy
dtype
p6
(S'f4'
p7
I0
I1
tp8
Rp9
(I3
S'<'
p10
NNNI-1
I-1
I0
tp11
bS'F\x95\x0c?'
p12
tp13
Rp14
ag5
(g9
S'\x8b\xad~>'
p15
tp16
Rp17
ag5
(g9
S'\xd6#\xbf>'
p18
tp19
Rp20
ag5
(g9
S'(\x8a\x01?'
p21
tp22
Rp23
ag5
(g9
S'\x0c\xf1%?'
p24
tp25
Rp26
ag5
(g9
S'\xf2(*?'
p27
tp28
Rp29
ag5
(g9
S'\x8dU6?'
p30
tp31
Rp32
ag5
(g9
S'0C`?'
p33
tp34
Rp35
ag5
(g9
S'\x9f\x8fk?'
p36
tp37
Rp38
ag5
(g9
S'\xde\x9cs?'
p39
tp40
Rp41
ag5
(g9
S'6j\x7f?'
p42
tp43
Rp44
ag5
(g9
S'\x1eV~?'
p45
tp46
Rp47
ag5
(g9
S'\xadx\x82?'
p48
tp49
Rp50
ag5
(g9
S'/|\x8c?'
p51
tp52
Rp53
ag5
(g9
S'\xac\xac\x90?'
p54
tp55
Rp56
ag5
(g9
S'Z\x85\x92?'
p57
tp58
Rp59
ag5
(g9
S'.g\x91?'
p60
tp61
Rp62
ag5
(g9
S'\xd51\x8e?'
p63
tp64
Rp65
ag5
(g9
S'\x02~\x97?'
p66
tp67
Rp68
ag5
(g9
S'\xb7\xe9\x98?'
p69
tp70
Rp71
ag5
(g9
S'\xed\x82\x9f?'
p72
tp73
Rp74
ag5
(g9
S'\xa8\xb4\x9d?'
p75
tp76
Rp77
ag5
(g9
S'\x04\xbb\x9a?'
p78
tp79
Rp80
ag5
(g9
S'7K\x9c?'
p81
tp82
Rp83
ag5
(g9
S'J\x14\x9a?'
p84
tp85
Rp86
ag5
(g9
S'\x07\x8b\xa1?'
p87
tp88
Rp89
ag5
(g9
S'\x0fn\x9e?'
p90
tp91
Rp92
ag5
(g9
S'1\xce\xa1?'
p93
tp94
Rp95
ag5
(g9
S'gL\xa2?'
p96
tp97
Rp98
ag5
(g9
S'Ps\xa0?'
p99
tp100
Rp101
ag5
(g9
S'\x99\xc0\x9f?'
p102
tp103
Rp104
ag5
(g9
S'\x08\x82\xa3?'
p105
tp106
Rp107
ag5
(g9
S'\x9b]\xa0?'
p108
tp109
Rp110
ag5
(g9
S'\x01Q\xa0?'
p111
tp112
Rp113
ag5
(g9
S'K\xed\xa1?'
p114
tp115
Rp116
ag5
(g9
S'~\xdf\xa0?'
p117
tp118
Rp119
ag5
(g9
S'g[\xa2?'
p120
tp121
Rp122
ag5
(g9
S'7\x8c\xa4?'
p123
tp124
Rp125
ag5
(g9
S'e\xb6\xa4?'
p126
tp127
Rp128
ag5
(g9
S'9\x85\xa3?'
p129
tp130
Rp131
ag5
(g9
S'&<\xa2?'
p132
tp133
Rp134
ag5
(g9
S'\x8fR\xa1?'
p135
tp136
Rp137
ag5
(g9
S'\xdc\xf4\xa4?'
p138
tp139
Rp140
ag5
(g9
S'\x16\\\xa6?'
p141
tp142
Rp143
ag5
(g9
S'x\x1d\xa6?'
p144
tp145
Rp146
ag5
(g9
S'\x93\xdc\xa8?'
p147
tp148
Rp149
ag5
(g9
S'\xf1H\xa9?'
p150
tp151
Rp152
ag5
(g9
S'H\xca\xaa?'
p153
tp154
Rp155
ag5
(g9
S'\xdc\x84\xa9?'
p156
tp157
Rp158
ag5
(g9
S'\xf6\x1a\xaa?'
p159
tp160
Rp161
asS'total_ptime'
p162
(lp163
F1970.254805803299
asS'G_losses'
p164
(lp165
g5
(g9
S'\xe0\xcf\xe3?'
p166
tp167
Rp168
ag5
(g9
S'\xb9\xe5I@'
p169
tp170
Rp171
ag5
(g9
S'\x12m-@'
p172
tp173
Rp174
ag5
(g9
S'\x1e\xac\x12@'
p175
tp176
Rp177
ag5
(g9
S'm\x95\xf3?'
p178
tp179
Rp180
ag5
(g9
S'A6\xe5?'
p181
tp182
Rp183
ag5
(g9
S'\xcb\xaa\xe3?'
p184
tp185
Rp186
ag5
(g9
S'\x14a\xb3?'
p187
tp188
Rp189
ag5
(g9
S'h$\xac?'
p190
tp191
Rp192
ag5
(g9
S'7}\xa2?'
p193
tp194
Rp195
ag5
(g9
S'\xca\xb9\x9b?'
p196
tp197
Rp198
ag5
(g9
S'\r\xc2\x94?'
p199
tp200
Rp201
ag5
(g9
S'pF\x95?'
p202
tp203
Rp204
ag5
(g9
S'\xe9u\x84?'
p205
tp206
Rp207
ag5
(g9
S'{hz?'
p208
tp209
Rp210
ag5
(g9
S'\x02Ns?'
p211
tp212
Rp213
ag5
(g9
S'\x19yx?'
p214
tp215
Rp216
ag5
(g9
S'\xc3\xdd\x82?'
p217
tp218
Rp219
ag5
(g9
S'\xb6pr?'
p220
tp221
Rp222
ag5
(g9
S'H\xe5a?'
p223
tp224
Rp225
ag5
(g9
S'\x9aOY?'
p226
tp227
Rp228
ag5
(g9
S'~\x86S?'
p229
tp230
Rp231
ag5
(g9
S'_\xf6_?'
p232
tp233
Rp234
ag5
(g9
S'lwe?'
p235
tp236
Rp237
ag5
(g9
S'(uY?'
p238
tp239
Rp240
ag5
(g9
S'\x08ZU?'
p241
tp242
Rp243
ag5
(g9
S'\xca+Q?'
p244
tp245
Rp246
ag5
(g9
S'\xa1wR?'
p247
tp248
Rp249
ag5
(g9
S'\xcd\xaaM?'
p250
tp251
Rp252
ag5
(g9
S'\xa8nL?'
p253
tp254
Rp255
ag5
(g9
S'\x19JS?'
p256
tp257
Rp258
ag5
(g9
S'\x92uD?'
p259
tp260
Rp261
ag5
(g9
S'\x05\x05L?'
p262
tp263
Rp264
ag5
(g9
S'sqR?'
p265
tp266
Rp267
ag5
(g9
S'\x89\xdaM?'
p268
tp269
Rp270
ag5
(g9
S'\x0cZR?'
p271
tp272
Rp273
ag5
(g9
S'\xbc]H?'
p274
tp275
Rp276
ag5
(g9
S'\x1a\xe6E?'
p277
tp278
Rp279
ag5
(g9
S'\xfd\x1eE?'
p280
tp281
Rp282
ag5
(g9
S'\x1c\x18I?'
p283
tp284
Rp285
ag5
(g9
S'\xd7\x83G?'
p286
tp287
Rp288
ag5
(g9
S'\xc2\xb8R?'
p289
tp290
Rp291
ag5
(g9
S'\xdb\xbfB?'
p292
tp293
Rp294
ag5
(g9
S'|\rB?'
p295
tp296
Rp297
ag5
(g9
S'\xe7\x00@?'
p298
tp299
Rp300
ag5
(g9
S'\xf9\x8c7?'
p301
tp302
Rp303
ag5
(g9
S'\x1a~:?'
p304
tp305
Rp306
ag5
(g9
S'S\xdb1?'
p307
tp308
Rp309
ag5
(g9
S'\t\xbd4?'
p310
tp311
Rp312
ag5
(g9
S'\x18U6?'
p313
tp314
Rp315
as.