(dp0
S'per_epoch_ptimes'
p1
(lp2
F730.1241850852966
aF723.432981967926
aF723.6177861690521
aF723.3976030349731
aF723.4528241157532
asS'D_losses'
p3
(lp4
cnumpy.core.multiarray
scalar
p5
(cnumpy
dtype
p6
(S'f4'
p7
I0
I1
tp8
Rp9
(I3
S'<'
p10
NNNI-1
I-1
I0
tp11
bS'e\x06N?'
p12
tp13
Rp14
ag5
(g9
S'\x05\x831?'
p15
tp16
Rp17
ag5
(g9
S'#\xe6\x10?'
p18
tp19
Rp20
ag5
(g9
S'\xeb\xc0\xec>'
p21
tp22
Rp23
ag5
(g9
S'H\xc8\xdd>'
p24
tp25
Rp26
asS'total_ptime'
p27
(lp28
F3680.561877965927
asS'G_losses'
p29
(lp30
g5
(g9
S'~\x9d\x9e@'
p31
tp32
Rp33
ag5
(g9
S'o\x066@'
p34
tp35
Rp36
ag5
(g9
S'\x11la@'
p37
tp38
Rp39
ag5
(g9
S'\xd62\x83@'
p40
tp41
Rp42
ag5
(g9
S'n\n\x87@'
p43
tp44
Rp45
as.