(dp0
S'per_epoch_ptimes'
p1
(lp2
F47.16755700111389
aF45.5413019657135
aF45.59962606430054
aF45.59415292739868
aF45.652857065200806
aF45.62913203239441
aF45.63025999069214
aF45.64908504486084
aF45.649072885513306
aF45.618728160858154
aF45.63969397544861
aF45.63115882873535
aF45.616750955581665
aF45.637003898620605
aF45.65212106704712
aF45.6146080493927
aF45.597424030303955
aF45.62122893333435
aF45.62560296058655
aF45.66473603248596
aF45.63743209838867
aF45.65674090385437
aF45.64635396003723
aF45.655043840408325
aF45.65736699104309
aF45.652535915374756
aF45.66735005378723
aF45.645975828170776
aF45.66059398651123
aF45.625415086746216
aF45.63288593292236
aF45.62058877944946
aF45.630468130111694
aF45.64106202125549
aF45.64078903198242
aF45.63444995880127
aF45.66010308265686
aF45.592719078063965
aF45.64461398124695
aF45.66444706916809
aF45.6077299118042
aF45.56874990463257
aF45.64140796661377
aF45.6289849281311
aF45.624117851257324
aF45.617846965789795
aF45.64995098114014
aF45.61022901535034
aF45.59623599052429
aF45.64717197418213
aF45.617830991744995
aF45.60342288017273
aF45.64891791343689
aF46.10926079750061
aF46.22797417640686
aF45.95444893836975
aF45.64676785469055
aF45.64105677604675
aF45.58068013191223
aF45.59505605697632
aF45.5915789604187
aF45.53608989715576
aF45.642088890075684
aF45.566012144088745
aF45.60013508796692
aF45.58552694320679
aF45.53190207481384
aF45.55788993835449
aF45.559561014175415
aF45.58590006828308
asS'D_losses'
p3
(lp4
cnumpy.core.multiarray
scalar
p5
(cnumpy
dtype
p6
(S'f4'
p7
I0
I1
tp8
Rp9
(I3
S'<'
p10
NNNI-1
I-1
I0
tp11
bS'4H\xaf?'
p12
tp13
Rp14
ag5
(g9
S'\x89i9?'
p15
tp16
Rp17
ag5
(g9
S'\xfa\xfc\x9a?'
p18
tp19
Rp20
ag5
(g9
S'\xc1\xc8\x9f?'
p21
tp22
Rp23
ag5
(g9
S'\xd8\xd5\xa2?'
p24
tp25
Rp26
ag5
(g9
S'D\xe0\xa6?'
p27
tp28
Rp29
ag5
(g9
S'\x07\x11\xa2?'
p30
tp31
Rp32
ag5
(g9
S'\xe6\x0c\x95?'
p33
tp34
Rp35
ag5
(g9
S'TM\x93?'
p36
tp37
Rp38
ag5
(g9
S'\xaa\xc7\x8d?'
p39
tp40
Rp41
ag5
(g9
S'A\xbb\x88?'
p42
tp43
Rp44
ag5
(g9
S'\xaa\x12\x8a?'
p45
tp46
Rp47
ag5
(g9
S')|\x89?'
p48
tp49
Rp50
ag5
(g9
S'+\xeb\x82?'
p51
tp52
Rp53
ag5
(g9
S'o\x89v?'
p54
tp55
Rp56
ag5
(g9
S'\xaa\xbcs?'
p57
tp58
Rp59
ag5
(g9
S'\xc8\xd6p?'
p60
tp61
Rp62
ag5
(g9
S'\xf1Tk?'
p63
tp64
Rp65
ag5
(g9
S'Q.H?'
p66
tp67
Rp68
ag5
(g9
S'\\\x0bP?'
p69
tp70
Rp71
ag5
(g9
S'\xbc\xfcB?'
p72
tp73
Rp74
ag5
(g9
S'i]B?'
p75
tp76
Rp77
ag5
(g9
S'\x96\xf3O?'
p78
tp79
Rp80
ag5
(g9
S'[\xef ?'
p81
tp82
Rp83
ag5
(g9
S'v\x01W?'
p84
tp85
Rp86
ag5
(g9
S'\x96\xbe??'
p87
tp88
Rp89
ag5
(g9
S'\x01\xe4=?'
p90
tp91
Rp92
ag5
(g9
S'x\xf1D?'
p93
tp94
Rp95
ag5
(g9
S'<\xed??'
p96
tp97
Rp98
ag5
(g9
S'\xda\xd0B?'
p99
tp100
Rp101
ag5
(g9
S'\xc9w\x18?'
p102
tp103
Rp104
ag5
(g9
S'\xdbd\xca>'
p105
tp106
Rp107
ag5
(g9
S'\x12{l?'
p108
tp109
Rp110
ag5
(g9
S'hl5?'
p111
tp112
Rp113
ag5
(g9
S'$\xe0\x0f?'
p114
tp115
Rp116
ag5
(g9
S'(\xb0#?'
p117
tp118
Rp119
ag5
(g9
S'\x91\xff\x0f?'
p120
tp121
Rp122
ag5
(g9
S'*\x04\x14?'
p123
tp124
Rp125
ag5
(g9
S'\xcaJ\x19?'
p126
tp127
Rp128
ag5
(g9
S'yC\x11?'
p129
tp130
Rp131
ag5
(g9
S't~\xee>'
p132
tp133
Rp134
ag5
(g9
S'\xff\x0eB?'
p135
tp136
Rp137
ag5
(g9
S'\xc0\t\xfa>'
p138
tp139
Rp140
ag5
(g9
S'\xa6\xfc\xc1>'
p141
tp142
Rp143
ag5
(g9
S'R\x8e\xc9>'
p144
tp145
Rp146
ag5
(g9
S'\x8c\xe2x?'
p147
tp148
Rp149
ag5
(g9
S'\t\xba\xc5>'
p150
tp151
Rp152
ag5
(g9
S'\xcc\xb9\r?'
p153
tp154
Rp155
ag5
(g9
S's\x88e?'
p156
tp157
Rp158
ag5
(g9
S'\x88\x92\xed>'
p159
tp160
Rp161
ag5
(g9
S'\x03\x97M>'
p162
tp163
Rp164
ag5
(g9
S'7\xfb\x1e>'
p165
tp166
Rp167
ag5
(g9
S'w\x1f}?'
p168
tp169
Rp170
ag5
(g9
S'*j\xbb>'
p171
tp172
Rp173
ag5
(g9
S'\x12,\xac>'
p174
tp175
Rp176
ag5
(g9
S'\x83\x90*?'
p177
tp178
Rp179
ag5
(g9
S'mW/?'
p180
tp181
Rp182
ag5
(g9
S'\xa5\x18\x83>'
p183
tp184
Rp185
ag5
(g9
S'\xf1\xe9T?'
p186
tp187
Rp188
ag5
(g9
S'\xd3\xc3\x90>'
p189
tp190
Rp191
ag5
(g9
S'\x13\xc1\xbb>'
p192
tp193
Rp194
ag5
(g9
S'\x0f\x9d2>'
p195
tp196
Rp197
ag5
(g9
S'Z\xe5\x9b?'
p198
tp199
Rp200
ag5
(g9
S'\xdb\x95\xd3>'
p201
tp202
Rp203
ag5
(g9
S'\xf3X\xc1>'
p204
tp205
Rp206
ag5
(g9
S'<\xbb&?'
p207
tp208
Rp209
ag5
(g9
S'f/B>'
p210
tp211
Rp212
ag5
(g9
S'\x8a\xda#>'
p213
tp214
Rp215
ag5
(g9
S'\xac\xc2\x82?'
p216
tp217
Rp218
ag5
(g9
S'\x02\x02\x19?'
p219
tp220
Rp221
asS'total_ptime'
p222
(lp223
F4052.9497821331024
asS'G_losses'
p224
(lp225
g5
(g9
S'\xb6)\xb4A'
p226
tp227
Rp228
ag5
(g9
S'z~\x9e@'
p229
tp230
Rp231
ag5
(g9
S'\x83M\x1f@'
p232
tp233
Rp234
ag5
(g9
S'iH\xfd?'
p235
tp236
Rp237
ag5
(g9
S'F\x84\xfa?'
p238
tp239
Rp240
ag5
(g9
S'\xea\x1a\xe1?'
p241
tp242
Rp243
ag5
(g9
S'\xdbj\xe9?'
p244
tp245
Rp246
ag5
(g9
S'\xf1j\x00@'
p247
tp248
Rp249
ag5
(g9
S'\x94\x90\x10@'
p250
tp251
Rp252
ag5
(g9
S'\xe8 \t@'
p253
tp254
Rp255
ag5
(g9
S'\xe4\xe1\n@'
p256
tp257
Rp258
ag5
(g9
S'TT\x06@'
p259
tp260
Rp261
ag5
(g9
S'\\\xa2\x02@'
p262
tp263
Rp264
ag5
(g9
S'D"\n@'
p265
tp266
Rp267
ag5
(g9
S'\xee"\x05@'
p268
tp269
Rp270
ag5
(g9
S'N;\x0e@'
p271
tp272
Rp273
ag5
(g9
S'*\xe6\x0c@'
p274
tp275
Rp276
ag5
(g9
S'\xa0*\x12@'
p277
tp278
Rp279
ag5
(g9
S'F\x9c\x15@'
p280
tp281
Rp282
ag5
(g9
S'\x19\xaa!@'
p283
tp284
Rp285
ag5
(g9
S'\xe6\xb63@'
p286
tp287
Rp288
ag5
(g9
S'\x0055@'
p289
tp290
Rp291
ag5
(g9
S'\x9c5A@'
p292
tp293
Rp294
ag5
(g9
S'\xdd\xc2N@'
p295
tp296
Rp297
ag5
(g9
S'\x16\xbfL@'
p298
tp299
Rp300
ag5
(g9
S'Xp:@'
p301
tp302
Rp303
ag5
(g9
S'A\x99D@'
p304
tp305
Rp306
ag5
(g9
S'\xf8\xa7D@'
p307
tp308
Rp309
ag5
(g9
S'\xe9\x9eQ@'
p310
tp311
Rp312
ag5
(g9
S'\x80<I@'
p313
tp314
Rp315
ag5
(g9
S'\xb2\x93N@'
p316
tp317
Rp318
ag5
(g9
S'&\xf2]@'
p319
tp320
Rp321
ag5
(g9
S'\xaa\x7fA@'
p322
tp323
Rp324
ag5
(g9
S'\xa4\x96V@'
p325
tp326
Rp327
ag5
(g9
S'L\xbeU@'
p328
tp329
Rp330
ag5
(g9
S'\xf4\x89U@'
p331
tp332
Rp333
ag5
(g9
S'\x9a\xabc@'
p334
tp335
Rp336
ag5
(g9
S'L@a@'
p337
tp338
Rp339
ag5
(g9
S'_\x18_@'
p340
tp341
Rp342
ag5
(g9
S'[XT@'
p343
tp344
Rp345
ag5
(g9
S'}._@'
p346
tp347
Rp348
ag5
(g9
S'\x1c\xfe`@'
p349
tp350
Rp351
ag5
(g9
S'\x17\xb1]@'
p352
tp353
Rp354
ag5
(g9
S'\x00Ag@'
p355
tp356
Rp357
ag5
(g9
S'\x01\x99r@'
p358
tp359
Rp360
ag5
(g9
S'\xda\xc9Z@'
p361
tp362
Rp363
ag5
(g9
S',\xfe\\@'
p364
tp365
Rp366
ag5
(g9
S'\xb1#Z@'
p367
tp368
Rp369
ag5
(g9
S'\xcf\xb1^@'
p370
tp371
Rp372
ag5
(g9
S'\x8dKR@'
p373
tp374
Rp375
ag5
(g9
S'\xdd\xb8_@'
p376
tp377
Rp378
ag5
(g9
S'\x88\xb4u@'
p379
tp380
Rp381
ag5
(g9
S'3\x14i@'
p382
tp383
Rp384
ag5
(g9
S'\xe9\xd9Q@'
p385
tp386
Rp387
ag5
(g9
S'*\x95c@'
p388
tp389
Rp390
ag5
(g9
S'\xa4\x1cw@'
p391
tp392
Rp393
ag5
(g9
S'F\xd7K@'
p394
tp395
Rp396
ag5
(g9
S'\xa0rc@'
p397
tp398
Rp399
ag5
(g9
S'\xf7\xccT@'
p400
tp401
Rp402
ag5
(g9
S'\xd4Cb@'
p403
tp404
Rp405
ag5
(g9
S'\x8f\x92k@'
p406
tp407
Rp408
ag5
(g9
S'!\xca|@'
p409
tp410
Rp411
ag5
(g9
S'!\x94K@'
p412
tp413
Rp414
ag5
(g9
S'\x98\xc6R@'
p415
tp416
Rp417
ag5
(g9
S'\xa6In@'
p418
tp419
Rp420
ag5
(g9
S'\xf4\xcbI@'
p421
tp422
Rp423
ag5
(g9
S'\x93pk@'
p424
tp425
Rp426
ag5
(g9
S'\x83\xc5z@'
p427
tp428
Rp429
ag5
(g9
S'\x0e\x1fa@'
p430
tp431
Rp432
ag5
(g9
S'Z<[@'
p433
tp434
Rp435
as.