(dp0
S'per_epoch_ptimes'
p1
(lp2
F707.407023191452
aF698.0991849899292
aF698.1192591190338
aF698.2044780254364
aF698.283627986908
aF698.4765009880066
aF698.4978339672089
aF698.7058038711548
aF698.7019779682159
aF699.1235451698303
aF699.1566841602325
aF700.2174000740051
aF699.2366650104523
aF699.3236589431763
aF700.4536697864532
aF699.3276960849762
aF699.4017531871796
aF699.1415579319
aF700.189936876297
aF699.4416170120239
aF699.303808927536
aF698.9825279712677
aF699.9656939506531
aF719.7795441150665
aF718.3355460166931
aF718.0584490299225
aF717.7672159671783
aF718.7206580638885
aF718.8203821182251
aF717.7386209964752
asS'D_losses'
p3
(lp4
cnumpy.core.multiarray
scalar
p5
(cnumpy
dtype
p6
(S'f4'
p7
I0
I1
tp8
Rp9
(I3
S'<'
p10
NNNI-1
I-1
I0
tp11
bS'hfg?'
p12
tp13
Rp14
ag5
(g9
S'2\xfa5?'
p15
tp16
Rp17
ag5
(g9
S'\x9e\n\xf0>'
p18
tp19
Rp20
ag5
(g9
S'C\xe0\xfe>'
p21
tp22
Rp23
ag5
(g9
S'\x9a\x10\xd1>'
p24
tp25
Rp26
ag5
(g9
S'H\x81\xf1>'
p27
tp28
Rp29
ag5
(g9
S')\x8e\xa1>'
p30
tp31
Rp32
ag5
(g9
S' \xa8\xfe>'
p33
tp34
Rp35
ag5
(g9
S'G\xf5\r?'
p36
tp37
Rp38
ag5
(g9
S'\x8e\xfa\xc2>'
p39
tp40
Rp41
ag5
(g9
S',\xa3\x99>'
p42
tp43
Rp44
ag5
(g9
S'\xe8\x95\xb9>'
p45
tp46
Rp47
ag5
(g9
S':\xec}>'
p48
tp49
Rp50
ag5
(g9
S'\x16i\x03?'
p51
tp52
Rp53
ag5
(g9
S'\xa2\xfe\x18?'
p54
tp55
Rp56
ag5
(g9
S'\xe5<r<'
p57
tp58
Rp59
ag5
(g9
S'\xc1\xc9?:'
p60
tp61
Rp62
ag5
(g9
S'CM\xe3='
p63
tp64
Rp65
ag5
(g9
S'\xed\xc1\xcb='
p66
tp67
Rp68
ag5
(g9
S'm\x027>'
p69
tp70
Rp71
ag5
(g9
S' \x00\xfc='
p72
tp73
Rp74
ag5
(g9
S'B\x08\x90>'
p75
tp76
Rp77
ag5
(g9
S'=\x1fL='
p78
tp79
Rp80
ag5
(g9
S'\xbe\xc4@>'
p81
tp82
Rp83
ag5
(g9
S'D\xb8\xcb='
p84
tp85
Rp86
ag5
(g9
S'\xc7;%='
p87
tp88
Rp89
ag5
(g9
S'T\xc0v='
p90
tp91
Rp92
ag5
(g9
S'\xe6!\xd0='
p93
tp94
Rp95
ag5
(g9
S'\x0c1\x84='
p96
tp97
Rp98
ag5
(g9
S'{H\x0f>'
p99
tp100
Rp101
asS'total_ptime'
p102
(lp103
F21621.889872074127
asS'G_losses'
p104
(lp105
g5
(g9
S'\xd9\xc0\xb5@'
p106
tp107
Rp108
ag5
(g9
S'\x95\xa3,@'
p109
tp110
Rp111
ag5
(g9
S'l\x02y@'
p112
tp113
Rp114
ag5
(g9
S'>\xe3\x85@'
p115
tp116
Rp117
ag5
(g9
S's\xa9\x91@'
p118
tp119
Rp120
ag5
(g9
S'\x89!\x81@'
p121
tp122
Rp123
ag5
(g9
S'\xec\x12\xdc@'
p124
tp125
Rp126
ag5
(g9
S'\xe3\xe4\x8b@'
p127
tp128
Rp129
ag5
(g9
S'X\xc7z@'
p130
tp131
Rp132
ag5
(g9
S'\x8c>\x9f@'
p133
tp134
Rp135
ag5
(g9
S'-\xf1\x92@'
p136
tp137
Rp138
ag5
(g9
S'2B\x96@'
p139
tp140
Rp141
ag5
(g9
S'\x90\xd9\xae@'
p142
tp143
Rp144
ag5
(g9
S"'\xa4}@"
p145
tp146
Rp147
ag5
(g9
S'\xf7\xee\x86@'
p148
tp149
Rp150
ag5
(g9
S'f\xd6\xd2@'
p151
tp152
Rp153
ag5
(g9
S'<\x97\x05A'
p154
tp155
Rp156
ag5
(g9
S'\xa4\xba\x19A'
p157
tp158
Rp159
ag5
(g9
S'}\xc4\xec@'
p160
tp161
Rp162
ag5
(g9
S'\xbc\x13\xd5@'
p163
tp164
Rp165
ag5
(g9
S'P\xb4\xae@'
p166
tp167
Rp168
ag5
(g9
S"'|\xac@"
p169
tp170
Rp171
ag5
(g9
S'K\x18\xdf@'
p172
tp173
Rp174
ag5
(g9
S':\xb0\xce@'
p175
tp176
Rp177
ag5
(g9
S'Q\xfd\xcf@'
p178
tp179
Rp180
ag5
(g9
S'\xcaq\xd4@'
p181
tp182
Rp183
ag5
(g9
S'\x938\xf6@'
p184
tp185
Rp186
ag5
(g9
S'\xe6\xf3\xca@'
p187
tp188
Rp189
ag5
(g9
S'\x9e\x1f\xd8@'
p190
tp191
Rp192
ag5
(g9
S'Nb\xe6@'
p193
tp194
Rp195
as.