(dp0
S'per_epoch_ptimes'
p1
(lp2
F864.6543939113617
aF861.8341119289398
aF861.6983480453491
aF861.731122970581
aF862.6991419792175
aF862.8205900192261
aF862.7668998241425
aF863.3053760528564
aF862.0420970916748
aF862.0978770256042
aF861.9114928245544
aF861.796532869339
aF861.635822057724
aF861.4375998973846
aF861.5667769908905
aF861.5776648521423
aF861.7267069816589
aF861.7207391262054
aF861.259917974472
aF861.7259628772736
asS'D_losses'
p3
(lp4
cnumpy.core.multiarray
scalar
p5
(cnumpy
dtype
p6
(S'f4'
p7
I0
I1
tp8
Rp9
(I3
S'<'
p10
NNNI-1
I-1
I0
tp11
bS'\xad\xd2\\?'
p12
tp13
Rp14
ag5
(g9
S'\xf5F\\?'
p15
tp16
Rp17
ag5
(g9
S'$\x035?'
p18
tp19
Rp20
ag5
(g9
S'\x1b\x16:?'
p21
tp22
Rp23
ag5
(g9
S'\x13\x8e\x10?'
p24
tp25
Rp26
ag5
(g9
S'9^\xe2>'
p27
tp28
Rp29
ag5
(g9
S'\x1c\x8f\xe2>'
p30
tp31
Rp32
ag5
(g9
S'41\xd5>'
p33
tp34
Rp35
ag5
(g9
S'U\xa2\xc6>'
p36
tp37
Rp38
ag5
(g9
S',l\x9c>'
p39
tp40
Rp41
ag5
(g9
S'\xe9\x05\xa0>'
p42
tp43
Rp44
ag5
(g9
S'\x9cU\x9b>'
p45
tp46
Rp47
ag5
(g9
S'L\xc4\xa1>'
p48
tp49
Rp50
ag5
(g9
S'\x9a\xff\xab>'
p51
tp52
Rp53
ag5
(g9
S'Z\x88\x96>'
p54
tp55
Rp56
ag5
(g9
S'\x8f\xa4~>'
p57
tp58
Rp59
ag5
(g9
S'.+m>'
p60
tp61
Rp62
ag5
(g9
S'\xdf\x8d\x8b>'
p63
tp64
Rp65
ag5
(g9
S'\x87H\x8a>'
p66
tp67
Rp68
ag5
(g9
S'\xe6\xe9h>'
p69
tp70
Rp71
asS'total_ptime'
p72
(lp73
F17574.804236888885
asS'G_losses'
p74
(lp75
g5
(g9
S'\xba\x8e\xc3@'
p76
tp77
Rp78
ag5
(g9
S'\xb3\xc5\x8b@'
p79
tp80
Rp81
ag5
(g9
S'\xaf\xc5\x9a@'
p82
tp83
Rp84
ag5
(g9
S'_#\xa4@'
p85
tp86
Rp87
ag5
(g9
S'\xd7\x97\xb1@'
p88
tp89
Rp90
ag5
(g9
S'\xad\x9f\xc2@'
p91
tp92
Rp93
ag5
(g9
S'$v\xc0@'
p94
tp95
Rp96
ag5
(g9
S'\xfcs\xc8@'
p97
tp98
Rp99
ag5
(g9
S'\xfb\xf7\xc8@'
p100
tp101
Rp102
ag5
(g9
S'\xf3\xf1\xd3@'
p103
tp104
Rp105
ag5
(g9
S'\xba\x9c\xdc@'
p106
tp107
Rp108
ag5
(g9
S'Gr\xdb@'
p109
tp110
Rp111
ag5
(g9
S'\x80\x96\xcf@'
p112
tp113
Rp114
ag5
(g9
S'<s\xd3@'
p115
tp116
Rp117
ag5
(g9
S'\x96#\xdb@'
p118
tp119
Rp120
ag5
(g9
S'l\x87\xdc@'
p121
tp122
Rp123
ag5
(g9
S'\xe7I\xe7@'
p124
tp125
Rp126
ag5
(g9
S'\x1c\xd1\xe4@'
p127
tp128
Rp129
ag5
(g9
S'\xf2\xff\xe2@'
p130
tp131
Rp132
ag5
(g9
S'\xb5\x95\xe2@'
p133
tp134
Rp135
as.