(dp0
S'per_epoch_ptimes'
p1
(lp2
F91.2492561340332
aF88.20112919807434
aF88.2025408744812
aF88.16783595085144
aF88.1721510887146
aF88.23877906799316
aF88.21378493309021
aF88.20080494880676
aF88.18356585502625
aF88.23560190200806
asS'D_losses'
p3
(lp4
cnumpy.core.multiarray
scalar
p5
(cnumpy
dtype
p6
(S'f4'
p7
I0
I1
tp8
Rp9
(I3
S'<'
p10
NNNI-1
I-1
I0
tp11
bS'\x90{\x8d?'
p12
tp13
Rp14
ag5
(g9
S'\x16\x1aE?'
p15
tp16
Rp17
ag5
(g9
S'&$/?'
p18
tp19
Rp20
ag5
(g9
S'x\x06e?'
p21
tp22
Rp23
ag5
(g9
S'\x9a5D?'
p24
tp25
Rp26
ag5
(g9
S'\xe7\x04(?'
p27
tp28
Rp29
ag5
(g9
S'\xb3\xe4s?'
p30
tp31
Rp32
ag5
(g9
S'H.V?'
p33
tp34
Rp35
ag5
(g9
S'\x83\x19[?'
p36
tp37
Rp38
ag5
(g9
S'*\x08[?'
p39
tp40
Rp41
asS'total_ptime'
p42
(lp43
F1053.1905550956726
asS'G_losses'
p44
(lp45
g5
(g9
S'!\x85\x7fA'
p46
tp47
Rp48
ag5
(g9
S'=[\xbb@'
p49
tp50
Rp51
ag5
(g9
S'\xf3K\xc9@'
p52
tp53
Rp54
ag5
(g9
S'\xf8@\x85@'
p55
tp56
Rp57
ag5
(g9
S'\xfa/\x93@'
p58
tp59
Rp60
ag5
(g9
S'X#\x87@'
p61
tp62
Rp63
ag5
(g9
S'A\xcf\xa4@'
p64
tp65
Rp66
ag5
(g9
S'\xf8\xd8i@'
p67
tp68
Rp69
ag5
(g9
S'j\xf2\x83@'
p70
tp71
Rp72
ag5
(g9
S'\xc3\xe8\x8e@'
p73
tp74
Rp75
as.